(dp0
Vengine
p1
S'pdflatex'
p2
sVpackages
p3
c__builtin__
set
p4
((lp5
Vtikz
p6
aVinputenc
p7
atp8
Rp9
sVfiles_with_guttermarks
p10
g4
((lp11
S'head_vs_workers.tex'
p12
aV/Users/james/BoxSync/stat385/lectures/lec16/assets/./head_vs_workers.tex
p13
atp14
Rp15
sVsynctex
p16
I01
s.