(dp0
Vengine
p1
S'pdflatex'
p2
sVpackages
p3
c__builtin__
set
p4
((lp5
Vtipa
p6
aVtikz
p7
aVinputenc
p8
aVtikz-qtree-compat
p9
aVtikz-qtree
p10
atp11
Rp12
sVfiles_with_guttermarks
p13
g4
((lp14
S'parallel_job_diag_5n.tex'
p15
aV/Users/james/BoxSync/stat385/lectures/lec16/assets/./parallel_job_diag_5n.tex
p16
atp17
Rp18
sVsynctex
p19
I01
s.