(dp0
Vengine
p1
S'pdflatex'
p2
sVpackages
p3
c__builtin__
set
p4
((lp5
Vtikz
p6
aVinputenc
p7
atp8
Rp9
sVfiles_with_guttermarks
p10
g4
((lp11
S'selection_diagram.tex'
p12
atp13
Rp14
sVsynctex
p15
I01
s.